target datalayout = "e-m:e-p270:32:32-p271:32:32-p272:64:64-i64:64-i128:128-f80:128-n8:16:32:64-S128"
target triple = "x86_64-pc-linux-gnu"

%struct.LoadF = type { i32, ptr, [8192 x i8] }

@.str.24 = private unnamed_addr constant [2 x i8] c"\0A\00", align 1

; Function Attrs: nounwind uwtable
define internal ptr @getF(ptr noundef %0, ptr noundef %1, ptr noundef %2) #0 {
  %4 = alloca ptr, align 8
  %5 = alloca ptr, align 8
  %6 = alloca ptr, align 8
  %7 = alloca ptr, align 8
  %8 = alloca ptr, align 8
  %9 = alloca i32, align 4
  store ptr %0, ptr %5, align 8, !tbaa !4
  store ptr %1, ptr %6, align 8, !tbaa !25
  store ptr %2, ptr %7, align 8, !tbaa !21
  call void @llvm.lifetime.start.p0(i64 8, ptr %8) #9
  %10 = load ptr, ptr %6, align 8, !tbaa !25
  store ptr %10, ptr %8, align 8, !tbaa !54
  %11 = load ptr, ptr %8, align 8, !tbaa !54
  %12 = getelementptr inbounds nuw %struct.LoadF, ptr %11, i32 0, i32 0
  %13 = load i32, ptr %12, align 8, !tbaa !47
  %14 = icmp ne i32 %13, 0
  br i1 %14, label %15, label %19

15:                                               ; preds = %3
  %16 = load ptr, ptr %8, align 8, !tbaa !54
  %17 = getelementptr inbounds nuw %struct.LoadF, ptr %16, i32 0, i32 0
  store i32 0, ptr %17, align 8, !tbaa !47
  %18 = load ptr, ptr %7, align 8, !tbaa !21
  store i64 1, ptr %18, align 8, !tbaa !23
  store ptr @.str.24, ptr %4, align 8
  store i32 1, ptr %9, align 4
  br label %45

19:                                               ; preds = %3
  %20 = load ptr, ptr %8, align 8, !tbaa !54
  %21 = getelementptr inbounds nuw %struct.LoadF, ptr %20, i32 0, i32 1
  %22 = load ptr, ptr %21, align 8, !tbaa !51
  %23 = call i32 @feof(ptr noundef %22) #9
  %24 = icmp ne i32 %23, 0
  br i1 %24, label %25, label %26

25:                                               ; preds = %19
  store ptr null, ptr %4, align 8
  store i32 1, ptr %9, align 4
  br label %45

26:                                               ; preds = %19
  %27 = load ptr, ptr %8, align 8, !tbaa !54
  %28 = getelementptr inbounds nuw %struct.LoadF, ptr %27, i32 0, i32 2
  %29 = getelementptr inbounds [8192 x i8], ptr %28, i64 0, i64 0
  %30 = load ptr, ptr %8, align 8, !tbaa !54
  %31 = getelementptr inbounds nuw %struct.LoadF, ptr %30, i32 0, i32 1
  %32 = load ptr, ptr %31, align 8, !tbaa !51
  %33 = call i64 @fread(ptr noundef %29, i64 noundef 1, i64 noundef 8192, ptr noundef %32)
  %34 = load ptr, ptr %7, align 8, !tbaa !21
  store i64 %33, ptr %34, align 8, !tbaa !23
  %35 = load ptr, ptr %7, align 8, !tbaa !21
  %36 = load i64, ptr %35, align 8, !tbaa !23
  %37 = icmp ugt i64 %36, 0
  br i1 %37, label %38, label %42

38:                                               ; preds = %26
  %39 = load ptr, ptr %8, align 8, !tbaa !54
  %40 = getelementptr inbounds nuw %struct.LoadF, ptr %39, i32 0, i32 2
  %41 = getelementptr inbounds [8192 x i8], ptr %40, i64 0, i64 0
  br label %43

42:                                               ; preds = %26
  br label %43

43:                                               ; preds = %42, %38
  %44 = phi ptr [ %41, %38 ], [ null, %42 ]
  store ptr %44, ptr %4, align 8
  store i32 1, ptr %9, align 4
  br label %45

45:                                               ; preds = %43, %25, %15
  call void @llvm.lifetime.end.p0(i64 8, ptr %8) #9
  %46 = load ptr, ptr %4, align 8
  ret ptr %46
}