; Function Attrs: nofree nounwind uwtable
define internal noundef ptr @getF(ptr readnone captures(none) %0, ptr noundef captures(ret: address, provenance) %1, ptr noundef writeonly captures(none) %2) #8 {
  %4 = load i32, ptr %1, align 8, !tbaa !34
  %.not = icmp eq i32 %4, 0
  br i1 %.not, label %6, label %5

5:                                                ; preds = %3
  store i32 0, ptr %1, align 8, !tbaa !34
  store i64 1, ptr %2, align 8, !tbaa !16
  br label %15

6:                                                ; preds = %3
  %7 = getelementptr inbounds nuw i8, ptr %1, i64 8
  %8 = load ptr, ptr %7, align 8, !tbaa !38
  %9 = tail call i32 @feof(ptr noundef %8) #17
  %.not11 = icmp eq i32 %9, 0
  br i1 %.not11, label %10, label %15

10:                                               ; preds = %6
  %11 = getelementptr inbounds nuw i8, ptr %1, i64 16
  %12 = load ptr, ptr %7, align 8, !tbaa !38
  %13 = tail call i64 @fread(ptr noundef nonnull %11, i64 noundef 1, i64 noundef 8192, ptr noundef %12)
  store i64 %13, ptr %2, align 8, !tbaa !16
  %.not12 = icmp eq i64 %13, 0
  %14 = select i1 %.not12, ptr null, ptr %11
  br label %15

15:                                               ; preds = %6, %10, %5
  %.0 = phi ptr [ @.str.24, %5 ], [ %14, %10 ], [ null, %6 ]
  ret ptr %.0
}